target datalayout = "e-m:e-p270:32:32-p271:32:32-p272:64:64-i64:64-i128:128-f80:128-n8:16:32:64-S128"
target triple = "x86_64-pc-linux-gnu"

%struct.OPTARGS = type { i32, i32, i32, i32, ptr, ptr, ptr, ptr, ptr, i32, i32, ptr, [21 x i8], [256 x ptr], ptr, ptr, ptr, ptr }

@stdin = external global ptr, align 8
@.str = private unnamed_addr constant [3 x i8] c"rb\00", align 1
@.str.1 = private unnamed_addr constant [3 x i8] c"rt\00", align 1

; Function Attrs: mustprogress uwtable
define hidden noundef i32 @_Z14opt_input_loopP7OPTARGSi(ptr noundef %0, i32 noundef %1) #1 {
  %3 = alloca i32, align 4
  %4 = alloca ptr, align 8
  %5 = alloca i32, align 4
  store ptr %0, ptr %4, align 8
  store i32 %1, ptr %5, align 4
  %6 = load ptr, ptr %4, align 8
  %7 = icmp eq ptr null, %6
  br i1 %7, label %8, label %9

8:                                                ; preds = %2
  store i32 0, ptr %3, align 4
  br label %97

9:                                                ; preds = %2
  %10 = load ptr, ptr %4, align 8
  %11 = getelementptr inbounds %struct.OPTARGS, ptr %10, i32 0, i32 8
  %12 = load ptr, ptr %11, align 8
  %13 = icmp ne ptr %12, null
  br i1 %13, label %14, label %25

14:                                               ; preds = %9
  %15 = load ptr, ptr %4, align 8
  %16 = getelementptr inbounds %struct.OPTARGS, ptr %15, i32 0, i32 8
  %17 = load ptr, ptr %16, align 8
  %18 = call i32 @feof(ptr noundef %17) #13
  %19 = icmp ne i32 %18, 0
  br i1 %19, label %25, label %20

20:                                               ; preds = %14
  %21 = load ptr, ptr %4, align 8
  %22 = getelementptr inbounds %struct.OPTARGS, ptr %21, i32 0, i32 10
  %23 = load i32, ptr %22, align 4
  %24 = add nsw i32 %23, 1
  store i32 %24, ptr %22, align 4
  store i32 1, ptr %3, align 4
  br label %97

25:                                               ; preds = %14, %9
  %26 = load ptr, ptr %4, align 8
  %27 = getelementptr inbounds %struct.OPTARGS, ptr %26, i32 0, i32 10
  store i32 0, ptr %27, align 4
  %28 = load ptr, ptr %4, align 8
  %29 = getelementptr inbounds %struct.OPTARGS, ptr %28, i32 0, i32 3
  %30 = load i32, ptr %29, align 4
  %31 = icmp eq i32 0, %30
  br i1 %31, label %32, label %41

32:                                               ; preds = %25
  %33 = load ptr, ptr %4, align 8
  %34 = getelementptr inbounds %struct.OPTARGS, ptr %33, i32 0, i32 8
  %35 = load ptr, ptr %34, align 8
  %36 = icmp eq ptr null, %35
  br i1 %36, label %37, label %41

37:                                               ; preds = %32
  %38 = load ptr, ptr @stdin, align 8
  %39 = load ptr, ptr %4, align 8
  %40 = getelementptr inbounds %struct.OPTARGS, ptr %39, i32 0, i32 8
  store ptr %38, ptr %40, align 8
  store i32 1, ptr %3, align 4
  br label %97

41:                                               ; preds = %32, %25
  %42 = load ptr, ptr %4, align 8
  %43 = getelementptr inbounds %struct.OPTARGS, ptr %42, i32 0, i32 8
  %44 = load ptr, ptr %43, align 8
  %45 = load ptr, ptr @stdin, align 8
  %46 = icmp eq ptr %44, %45
  br i1 %46, label %47, label %48

47:                                               ; preds = %41
  store i32 0, ptr %3, align 4
  br label %97

48:                                               ; preds = %41
  %49 = load ptr, ptr %4, align 8
  %50 = getelementptr inbounds %struct.OPTARGS, ptr %49, i32 0, i32 8
  %51 = load ptr, ptr %50, align 8
  %52 = icmp ne ptr null, %51
  br i1 %52, label %53, label %58

53:                                               ; preds = %48
  %54 = load ptr, ptr %4, align 8
  %55 = getelementptr inbounds %struct.OPTARGS, ptr %54, i32 0, i32 8
  %56 = load ptr, ptr %55, align 8
  %57 = call i32 @fclose(ptr noundef %56)
  br label %58

58:                                               ; preds = %53, %48
  %59 = load ptr, ptr %4, align 8
  %60 = getelementptr inbounds %struct.OPTARGS, ptr %59, i32 0, i32 9
  %61 = load i32, ptr %60, align 8
  %62 = load ptr, ptr %4, align 8
  %63 = getelementptr inbounds %struct.OPTARGS, ptr %62, i32 0, i32 3
  %64 = load i32, ptr %63, align 4
  %65 = icmp sge i32 %61, %64
  br i1 %65, label %66, label %67

66:                                               ; preds = %58
  store i32 0, ptr %3, align 4
  br label %97

67:                                               ; preds = %58
  %68 = load ptr, ptr %4, align 8
  %69 = getelementptr inbounds %struct.OPTARGS, ptr %68, i32 0, i32 7
  %70 = load ptr, ptr %69, align 8
  %71 = load ptr, ptr %4, align 8
  %72 = getelementptr inbounds %struct.OPTARGS, ptr %71, i32 0, i32 9
  %73 = load i32, ptr %72, align 8
  %74 = add nsw i32 %73, 1
  store i32 %74, ptr %72, align 8
  %75 = sext i32 %73 to i64
  %76 = getelementptr inbounds ptr, ptr %70, i64 %75
  %77 = load ptr, ptr %76, align 8
  %78 = load i32, ptr %5, align 4
  %79 = icmp ne i32 %78, 0
  br i1 %79, label %80, label %81

80:                                               ; preds = %67
  br label %82

81:                                               ; preds = %67
  br label %82

82:                                               ; preds = %81, %80
  %83 = phi ptr [ @.str, %80 ], [ @.str.1, %81 ]
  %84 = getelementptr inbounds [3 x i8], ptr %83, i64 0, i64 0
  %85 = call noalias ptr @fopen(ptr noundef %77, ptr noundef %84)
  %86 = load ptr, ptr %4, align 8
  %87 = getelementptr inbounds %struct.OPTARGS, ptr %86, i32 0, i32 8
  store ptr %85, ptr %87, align 8
  %88 = load ptr, ptr %4, align 8
  %89 = getelementptr inbounds %struct.OPTARGS, ptr %88, i32 0, i32 8
  %90 = load ptr, ptr %89, align 8
  %91 = icmp ne ptr null, %90
  br i1 %91, label %92, label %93

92:                                               ; preds = %82
  store i32 1, ptr %3, align 4
  br label %97

93:                                               ; preds = %82
  %94 = load ptr, ptr %4, align 8
  %95 = load i32, ptr %5, align 4
  %96 = call noundef i32 @_Z14opt_input_loopP7OPTARGSi(ptr noundef %94, i32 noundef %95)
  store i32 %96, ptr %3, align 4
  br label %97

97:                                               ; preds = %93, %92, %66, %47, %37, %20, %8
  %98 = load i32, ptr %3, align 4
  ret i32 %98
}