; Function Attrs: mustprogress nofree nounwind uwtable
define hidden noundef i32 @_Z14opt_input_loopP7OPTARGSi(ptr noundef %0, i32 noundef %1) local_unnamed_addr #2 {
  %3 = icmp eq ptr %0, null
  %4 = getelementptr inbounds i8, ptr %0, i64 48
  %5 = getelementptr inbounds i8, ptr %0, i64 60
  %6 = getelementptr inbounds i8, ptr %0, i64 12
  %7 = getelementptr inbounds i8, ptr %0, i64 56
  %8 = getelementptr inbounds i8, ptr %0, i64 40
  %.not27 = icmp eq i32 %1, 0
  %.str..str.1 = select i1 %.not27, ptr @.str.1, ptr @.str
  br i1 %3, label %.loopexit.split, label %tailrecurse.preheader

tailrecurse.preheader:                            ; preds = %2
  %.pre = load ptr, ptr %4, align 8
  br label %tailrecurse

tailrecurse:                                      ; preds = %tailrecurse.preheader, %29
  %9 = phi ptr [ %.pre, %tailrecurse.preheader ], [ null, %29 ]
  %.not = icmp eq ptr %9, null
  br i1 %.not, label %15, label %10

10:                                               ; preds = %tailrecurse
  %11 = tail call i32 @feof(ptr noundef nonnull %9) #26
  %.not24 = icmp eq i32 %11, 0
  br i1 %.not24, label %12, label %15

12:                                               ; preds = %10
  %13 = load i32, ptr %5, align 4
  %14 = add nsw i32 %13, 1
  store i32 %14, ptr %5, align 4
  br label %.loopexit.split

15:                                               ; preds = %10, %tailrecurse
  store i32 0, ptr %5, align 4
  %16 = load i32, ptr %6, align 4
  %17 = icmp eq i32 %16, 0
  %18 = load ptr, ptr %4, align 8
  %19 = icmp eq ptr %18, null
  %or.cond = select i1 %17, i1 %19, i1 false
  %20 = load ptr, ptr @stdin, align 8
  br i1 %or.cond, label %21, label %thread-pre-split

21:                                               ; preds = %15
  store ptr %20, ptr %4, align 8
  br label %.loopexit.split

thread-pre-split:                                 ; preds = %15
  %22 = icmp eq ptr %18, %20
  br i1 %22, label %.loopexit.split, label %23

23:                                               ; preds = %thread-pre-split
  %.not25 = icmp eq ptr %18, null
  br i1 %.not25, label %26, label %24

24:                                               ; preds = %23
  %25 = tail call i32 @fclose(ptr noundef nonnull %18)
  %.pre31 = load i32, ptr %6, align 4
  br label %26

26:                                               ; preds = %24, %23
  %27 = phi i32 [ %.pre31, %24 ], [ %16, %23 ]
  %28 = load i32, ptr %7, align 8
  %.not26 = icmp slt i32 %28, %27
  br i1 %.not26, label %29, label %.loopexit.split

29:                                               ; preds = %26
  %30 = load ptr, ptr %8, align 8
  %31 = add nsw i32 %28, 1
  store i32 %31, ptr %7, align 8
  %32 = sext i32 %28 to i64
  %33 = getelementptr inbounds ptr, ptr %30, i64 %32
  %34 = load ptr, ptr %33, align 8
  %35 = tail call noalias ptr @fopen(ptr noundef %34, ptr noundef nonnull %.str..str.1)
  store ptr %35, ptr %4, align 8
  %.not28 = icmp eq ptr %35, null
  br i1 %.not28, label %tailrecurse, label %.loopexit.split

.loopexit.split:                                  ; preds = %thread-pre-split, %26, %29, %2, %21, %12
  %.0 = phi i32 [ 1, %21 ], [ 1, %12 ], [ 0, %2 ], [ 1, %29 ], [ 0, %26 ], [ 0, %thread-pre-split ]
  ret i32 %.0
}